target datalayout = "e-m:e-p270:32:32-p271:32:32-p272:64:64-i64:64-i128:128-f80:128-n8:16:32:64-S128"
target triple = "x86_64-pc-linux-gnu"

%"struct.mold::ElfRel" = type { %"class.mold::Integer", i8, %"class.mold::Integer.0" }
%"class.mold::Integer" = type { [4 x i8] }
%"class.mold::Integer.0" = type { [3 x i8] }
%"class.mold::Integer.1" = type { [2 x i8] }

; Function Attrs: mustprogress nounwind
define linkonce_odr dso_local noundef i32 @_ZNK4mold7IntegerIjLb1ELi4EEcvjEv(ptr noundef nonnull align 1 dereferenceable(4) %0) #4 comdat align 2 {
  %2 = alloca ptr, align 8
  store ptr %0, ptr %2, align 8, !tbaa !24
  %3 = load ptr, ptr %2, align 8
  %4 = getelementptr inbounds nuw %"class.mold::Integer", ptr %3, i32 0, i32 0
  %5 = getelementptr inbounds [4 x i8], ptr %4, i64 0, i64 3
  %6 = load i8, ptr %5, align 1, !tbaa !21
  %7 = zext i8 %6 to i32
  %8 = shl i32 %7, 24
  %9 = getelementptr inbounds nuw %"class.mold::Integer", ptr %3, i32 0, i32 0
  %10 = getelementptr inbounds [4 x i8], ptr %9, i64 0, i64 2
  %11 = load i8, ptr %10, align 1, !tbaa !21
  %12 = zext i8 %11 to i32
  %13 = shl i32 %12, 16
  %14 = or i32 %8, %13
  %15 = getelementptr inbounds nuw %"class.mold::Integer", ptr %3, i32 0, i32 0
  %16 = getelementptr inbounds [4 x i8], ptr %15, i64 0, i64 1
  %17 = load i8, ptr %16, align 1, !tbaa !21
  %18 = zext i8 %17 to i32
  %19 = shl i32 %18, 8
  %20 = or i32 %14, %19
  %21 = getelementptr inbounds nuw %"class.mold::Integer", ptr %3, i32 0, i32 0
  %22 = getelementptr inbounds [4 x i8], ptr %21, i64 0, i64 0
  %23 = load i8, ptr %22, align 1, !tbaa !21
  %24 = zext i8 %23 to i32
  %25 = or i32 %20, %24
  ret i32 %25
}

; Function Attrs: mustprogress nounwind
define linkonce_odr dso_local noundef zeroext i16 @_ZNK4mold7IntegerItLb1ELi2EEcvtEv(ptr noundef nonnull align 1 dereferenceable(2) %0) #4 comdat align 2 {
  %2 = alloca ptr, align 8
  store ptr %0, ptr %2, align 8, !tbaa !22
  %3 = load ptr, ptr %2, align 8
  %4 = getelementptr inbounds nuw %"class.mold::Integer.1", ptr %3, i32 0, i32 0
  %5 = getelementptr inbounds [2 x i8], ptr %4, i64 0, i64 1
  %6 = load i8, ptr %5, align 1, !tbaa !21
  %7 = zext i8 %6 to i32
  %8 = shl i32 %7, 8
  %9 = getelementptr inbounds nuw %"class.mold::Integer.1", ptr %3, i32 0, i32 0
  %10 = getelementptr inbounds [2 x i8], ptr %9, i64 0, i64 0
  %11 = load i8, ptr %10, align 1, !tbaa !21
  %12 = zext i8 %11 to i32
  %13 = or i32 %8, %12
  %14 = trunc i32 %13 to i16
  ret i16 %14
}

; Function Attrs: mustprogress nounwind
define dso_local noundef i64 @_ZN4mold10get_addendINS_4I386EEElPhRKNS_6ElfRelIT_EE(ptr noundef %0, ptr noundef nonnull align 1 dereferenceable(8) %1) #4 {
  %3 = alloca i64, align 8
  %4 = alloca ptr, align 8
  %5 = alloca ptr, align 8
  store ptr %0, ptr %4, align 8, !tbaa !13
  store ptr %1, ptr %5, align 8, !tbaa !15
  %6 = load ptr, ptr %5, align 8, !tbaa !15
  %7 = getelementptr inbounds nuw %"struct.mold::ElfRel", ptr %6, i32 0, i32 1
  %8 = load i8, ptr %7, align 1, !tbaa !17
  %9 = zext i8 %8 to i32
  switch i32 %9, label %22 [
    i32 22, label %10
    i32 23, label %10
    i32 20, label %14
    i32 21, label %14
    i32 1, label %18
    i32 2, label %18
    i32 3, label %18
    i32 43, label %18
    i32 4, label %18
    i32 9, label %18
    i32 10, label %18
    i32 19, label %18
    i32 16, label %18
    i32 17, label %18
    i32 15, label %18
    i32 18, label %18
    i32 32, label %18
    i32 38, label %18
    i32 39, label %18
  ]

10:                                               ; preds = %2, %2
  %11 = load ptr, ptr %4, align 8, !tbaa !13
  %12 = load i8, ptr %11, align 1, !tbaa !21
  %13 = zext i8 %12 to i64
  store i64 %13, ptr %3, align 8
  br label %23

14:                                               ; preds = %2, %2
  %15 = load ptr, ptr %4, align 8, !tbaa !13
  %16 = call noundef zeroext i16 @_ZNK4mold7IntegerItLb1ELi2EEcvtEv(ptr noundef nonnull align 1 dereferenceable(2) %15)
  %17 = zext i16 %16 to i64
  store i64 %17, ptr %3, align 8
  br label %23

18:                                               ; preds = %2, %2, %2, %2, %2, %2, %2, %2, %2, %2, %2, %2, %2, %2, %2
  %19 = load ptr, ptr %4, align 8, !tbaa !13
  %20 = call noundef i32 @_ZNK4mold7IntegerIjLb1ELi4EEcvjEv(ptr noundef nonnull align 1 dereferenceable(4) %19)
  %21 = zext i32 %20 to i64
  store i64 %21, ptr %3, align 8
  br label %23

22:                                               ; preds = %2
  store i64 0, ptr %3, align 8
  br label %23

23:                                               ; preds = %22, %18, %14, %10
  %24 = load i64, ptr %3, align 8
  ret i64 %24
}