; Function Attrs: mustprogress nofree norecurse nosync nounwind willreturn memory(argmem: read)
define dso_local noundef range(i64 0, 4294967296) i64 @_ZN4mold10get_addendINS_4I386EEElPhRKNS_6ElfRelIT_EE(ptr noundef readonly captures(none) %0, ptr noundef nonnull readonly align 1 captures(none) dereferenceable(8) %1) local_unnamed_addr #5 {
  %3 = getelementptr inbounds nuw i8, ptr %1, i64 4
  %4 = load i8, ptr %3, align 1, !tbaa !11
  switch i8 %4, label %14 [
    i8 22, label %5
    i8 23, label %5
    i8 20, label %8
    i8 21, label %8
    i8 1, label %11
    i8 2, label %11
    i8 3, label %11
    i8 43, label %11
    i8 4, label %11
    i8 9, label %11
    i8 10, label %11
    i8 19, label %11
    i8 16, label %11
    i8 17, label %11
    i8 15, label %11
    i8 18, label %11
    i8 32, label %11
    i8 38, label %11
    i8 39, label %11
  ]

5:                                                ; preds = %2, %2
  %6 = load i8, ptr %0, align 1, !tbaa !15
  %7 = zext i8 %6 to i64
  br label %14

8:                                                ; preds = %2, %2
  %9 = load i16, ptr %0, align 1
  %10 = zext i16 %9 to i64
  br label %14

11:                                               ; preds = %2, %2, %2, %2, %2, %2, %2, %2, %2, %2, %2, %2, %2, %2, %2
  %12 = load i32, ptr %0, align 1
  %13 = zext i32 %12 to i64
  br label %14

14:                                               ; preds = %2, %11, %8, %5
  %.0 = phi i64 [ %13, %11 ], [ %10, %8 ], [ %7, %5 ], [ 0, %2 ]
  ret i64 %.0
}